; Function Attrs: nounwind uwtable
define ptr @l_Lean_LocalContext_foldrM___rarg___lambda__1(ptr noundef %0, ptr noundef %1, ptr noundef %2, ptr noundef %3) #2 {
  %5 = ptrtoint ptr %2 to i64
  %6 = and i64 %5, 1
  %.not.i34 = icmp eq i64 %6, 0
  br i1 %.not.i34, label %10, label %7

7:                                                ; preds = %4
  %8 = lshr i64 %5, 1
  %9 = trunc i64 %8 to i32
  br label %lean_obj_tag.exit

10:                                               ; preds = %4
  %11 = getelementptr i8, ptr %2, i64 4
  %.val.i = load i32, ptr %11, align 4
  %12 = lshr i32 %.val.i, 24
  br label %lean_obj_tag.exit

lean_obj_tag.exit:                                ; preds = %7, %10
  %.0.i = phi i32 [ %9, %7 ], [ %12, %10 ]
  %13 = icmp eq i32 %.0.i, 0
  br i1 %13, label %14, label %61

14:                                               ; preds = %lean_obj_tag.exit
  %15 = ptrtoint ptr %1 to i64
  %16 = and i64 %15, 1
  %.not45 = icmp eq i64 %16, 0
  br i1 %.not45, label %17, label %lean_dec.exit23

17:                                               ; preds = %14
  %18 = load i32, ptr %1, align 4, !tbaa !4
  %19 = icmp sgt i32 %18, 1
  br i1 %19, label %20, label %22, !prof !11

20:                                               ; preds = %17
  %21 = add nsw i32 %18, -1
  store i32 %21, ptr %1, align 4, !tbaa !4
  br label %lean_dec.exit23

22:                                               ; preds = %17
  %.not.i = icmp eq i32 %18, 0
  br i1 %.not.i, label %lean_dec.exit23, label %23

23:                                               ; preds = %22
  tail call void @lean_dec_ref_cold(ptr noundef nonnull %1) #8
  br label %lean_dec.exit23

lean_dec.exit23:                                  ; preds = %23, %22, %20, %14
  %24 = getelementptr inbounds nuw i8, ptr %0, i64 8
  %25 = load ptr, ptr %24, align 8, !tbaa !9
  %26 = ptrtoint ptr %25 to i64
  %27 = and i64 %26, 1
  %.not46 = icmp eq i64 %27, 0
  br i1 %.not46, label %28, label %lean_inc.exit25

28:                                               ; preds = %lean_dec.exit23
  %.val.i35 = load i32, ptr %25, align 4, !tbaa !4
  %29 = icmp sgt i32 %.val.i35, 0
  br i1 %29, label %30, label %32, !prof !11

30:                                               ; preds = %28
  %31 = add nuw i32 %.val.i35, 1
  store i32 %31, ptr %25, align 4, !tbaa !4
  br label %lean_inc.exit25

32:                                               ; preds = %28
  %.not.i36 = icmp eq i32 %.val.i35, 0
  br i1 %.not.i36, label %lean_inc.exit25, label %33

33:                                               ; preds = %32
  tail call void @lean_inc_ref_cold(ptr noundef nonnull %25) #8
  br label %lean_inc.exit25

lean_inc.exit25:                                  ; preds = %33, %32, %30, %lean_dec.exit23
  %34 = ptrtoint ptr %0 to i64
  %35 = and i64 %34, 1
  %.not47 = icmp eq i64 %35, 0
  br i1 %.not47, label %36, label %lean_dec.exit22

36:                                               ; preds = %lean_inc.exit25
  %37 = load i32, ptr %0, align 4, !tbaa !4
  %38 = icmp sgt i32 %37, 1
  br i1 %38, label %39, label %41, !prof !11

39:                                               ; preds = %36
  %40 = add nsw i32 %37, -1
  store i32 %40, ptr %0, align 4, !tbaa !4
  br label %lean_dec.exit22

41:                                               ; preds = %36
  %.not.i26 = icmp eq i32 %37, 0
  br i1 %.not.i26, label %lean_dec.exit22, label %42

42:                                               ; preds = %41
  tail call void @lean_dec_ref_cold(ptr noundef nonnull %0) #8
  br label %lean_dec.exit22

lean_dec.exit22:                                  ; preds = %42, %41, %39, %lean_inc.exit25
  %43 = getelementptr inbounds nuw i8, ptr %25, i64 16
  %44 = load ptr, ptr %43, align 8, !tbaa !9
  %45 = ptrtoint ptr %44 to i64
  %46 = and i64 %45, 1
  %.not48 = icmp eq i64 %46, 0
  br i1 %.not48, label %47, label %lean_inc.exit24

47:                                               ; preds = %lean_dec.exit22
  %.val.i37 = load i32, ptr %44, align 4, !tbaa !4
  %48 = icmp sgt i32 %.val.i37, 0
  br i1 %48, label %49, label %51, !prof !11

49:                                               ; preds = %47
  %50 = add nuw i32 %.val.i37, 1
  store i32 %50, ptr %44, align 4, !tbaa !4
  br label %lean_inc.exit24

51:                                               ; preds = %47
  %.not.i38 = icmp eq i32 %.val.i37, 0
  br i1 %.not.i38, label %lean_inc.exit24, label %52

52:                                               ; preds = %51
  tail call void @lean_inc_ref_cold(ptr noundef nonnull %44) #8
  br label %lean_inc.exit24

lean_inc.exit24:                                  ; preds = %52, %51, %49, %lean_dec.exit22
  br i1 %.not46, label %53, label %lean_dec.exit21

53:                                               ; preds = %lean_inc.exit24
  %54 = load i32, ptr %25, align 4, !tbaa !4
  %55 = icmp sgt i32 %54, 1
  br i1 %55, label %56, label %58, !prof !11

56:                                               ; preds = %53
  %57 = add nsw i32 %54, -1
  store i32 %57, ptr %25, align 4, !tbaa !4
  br label %lean_dec.exit21

58:                                               ; preds = %53
  %.not.i28 = icmp eq i32 %54, 0
  br i1 %.not.i28, label %lean_dec.exit21, label %59

59:                                               ; preds = %58
  tail call void @lean_dec_ref_cold(ptr noundef nonnull %25) #8
  br label %lean_dec.exit21

lean_dec.exit21:                                  ; preds = %59, %58, %56, %lean_inc.exit24
  %60 = tail call ptr @lean_apply_2(ptr noundef %44, ptr noundef nonnull inttoptr (i64 1 to ptr), ptr noundef %3) #8
  br label %89

61:                                               ; preds = %lean_obj_tag.exit
  %62 = ptrtoint ptr %0 to i64
  %63 = and i64 %62, 1
  %.not = icmp eq i64 %63, 0
  br i1 %.not, label %64, label %lean_dec.exit20

64:                                               ; preds = %61
  %65 = load i32, ptr %0, align 4, !tbaa !4
  %66 = icmp sgt i32 %65, 1
  br i1 %66, label %67, label %69, !prof !11

67:                                               ; preds = %64
  %68 = add nsw i32 %65, -1
  store i32 %68, ptr %0, align 4, !tbaa !4
  br label %lean_dec.exit20

69:                                               ; preds = %64
  %.not.i30 = icmp eq i32 %65, 0
  br i1 %.not.i30, label %lean_dec.exit20, label %70

70:                                               ; preds = %69
  tail call void @lean_dec_ref_cold(ptr noundef nonnull %0) #8
  br label %lean_dec.exit20

lean_dec.exit20:                                  ; preds = %70, %69, %67, %61
  %71 = getelementptr inbounds nuw i8, ptr %2, i64 8
  %72 = load ptr, ptr %71, align 8, !tbaa !9
  %73 = ptrtoint ptr %72 to i64
  %74 = and i64 %73, 1
  %.not43 = icmp eq i64 %74, 0
  br i1 %.not43, label %75, label %lean_inc.exit

75:                                               ; preds = %lean_dec.exit20
  %.val.i40 = load i32, ptr %72, align 4, !tbaa !4
  %76 = icmp sgt i32 %.val.i40, 0
  br i1 %76, label %77, label %79, !prof !11

77:                                               ; preds = %75
  %78 = add nuw i32 %.val.i40, 1
  store i32 %78, ptr %72, align 4, !tbaa !4
  br label %lean_inc.exit

79:                                               ; preds = %75
  %.not.i41 = icmp eq i32 %.val.i40, 0
  br i1 %.not.i41, label %lean_inc.exit, label %80

80:                                               ; preds = %79
  tail call void @lean_inc_ref_cold(ptr noundef nonnull %72) #8
  br label %lean_inc.exit

lean_inc.exit:                                    ; preds = %80, %79, %77, %lean_dec.exit20
  br i1 %.not.i34, label %81, label %lean_dec.exit

81:                                               ; preds = %lean_inc.exit
  %82 = load i32, ptr %2, align 4, !tbaa !4
  %83 = icmp sgt i32 %82, 1
  br i1 %83, label %84, label %86, !prof !11

84:                                               ; preds = %81
  %85 = add nsw i32 %82, -1
  store i32 %85, ptr %2, align 4, !tbaa !4
  br label %lean_dec.exit

86:                                               ; preds = %81
  %.not.i32 = icmp eq i32 %82, 0
  br i1 %.not.i32, label %lean_dec.exit, label %87

87:                                               ; preds = %86
  tail call void @lean_dec_ref_cold(ptr noundef nonnull %2) #8
  br label %lean_dec.exit

lean_dec.exit:                                    ; preds = %87, %86, %84, %lean_inc.exit
  %88 = tail call ptr @lean_apply_2(ptr noundef %1, ptr noundef %72, ptr noundef %3) #8
  br label %89

89:                                               ; preds = %lean_dec.exit, %lean_dec.exit21
  %.0 = phi ptr [ %60, %lean_dec.exit21 ], [ %88, %lean_dec.exit ]
  ret ptr %.0
}